	.section	__TEXT,__text,regular,pure_instructions
	.build_version macos, 10, 15, 4	sdk_version 10, 15, 4
	.globl	_print                  ## -- Begin function print
	.p2align	4, 0x90
_print:                                 ## @print
	.cfi_startproc
## %bb.0:
	pushq	%rbp
	.cfi_def_cfa_offset 16
	.cfi_offset %rbp, -16
	movq	%rsp, %rbp
	.cfi_def_cfa_register %rbp
	subq	$16, %rsp
	movq	%rdi, -8(%rbp)
	movq	-8(%rbp), %rsi
	leaq	L_.str(%rip), %rdi
	movb	$0, %al
	callq	_printf
	addq	$16, %rsp
	popq	%rbp
	retq
	.cfi_endproc
                                        ## -- End function
	.globl	_sandbox                ## -- Begin function sandbox
	.p2align	4, 0x90
_sandbox:                               ## @sandbox
	.cfi_startproc
## %bb.0:
	pushq	%rbp
	.cfi_def_cfa_offset 16
	.cfi_offset %rbp, -16
	movq	%rsp, %rbp
	.cfi_def_cfa_register %rbp
	subq	$32, %rsp
	movq	$7, -8(%rbp)    #a
	movq	$11, -16(%rbp)  #b
	movq	$13, -24(%rbp)  #c
	movq	-8(%rbp), %rax  # a-> rax
	movq	-16(%rbp), %rcx # b-> rcx
	imulq	-24(%rbp), %rcx # rcx = b*c
	addq	%rcx, %rax      # rax = a+b*c
	movq	%rax, -32(%rbp) # d= a+b*c
	movq	-32(%rbp), %rdi # d-> arg1
	callq	_print			# print(d)
	movq	-32(%rbp), %rax # d -> return value
	addq	$32, %rsp		# reset stack pointer
	popq	%rbp			# reset base pointer
	retq
	.cfi_endproc
                                        ## -- End function
	.globl	_main                   ## -- Begin function main
	.p2align	4, 0x90
_main:                                  ## @main
	.cfi_startproc
## %bb.0:
	pushq	%rbp
	.cfi_def_cfa_offset 16
	.cfi_offset %rbp, -16
	movq	%rsp, %rbp
	.cfi_def_cfa_register %rbp
	subq	$16, %rsp
	movl	$0, -4(%rbp)
	movl	%edi, -8(%rbp)
	callq	_sandbox
	movl	$1, %ecx
	movq	%rax, -16(%rbp)         ## 8-byte Spill
	movl	%ecx, %eax
	addq	$16, %rsp
	popq	%rbp
	retq
	.cfi_endproc
                                        ## -- End function
	.section	__TEXT,__cstring,cstring_literals
L_.str:                                 ## @.str
	.asciz	"%10ld\n"


.subsections_via_symbols
